target datalayout = "e-m:e-p270:32:32-p271:32:32-p272:64:64-i64:64-i128:128-f80:128-n8:16:32:64-S128"
target triple = "x86_64-pc-linux-gnu"

%"class.Json::Features" = type { i8, i8, i8, i8 }
%"class.Json::Reader" = type <{ %"class.std::stack", %"class.std::deque.0", %"class.std::__cxx11::basic_string", ptr, ptr, ptr, ptr, ptr, %"class.std::__cxx11::basic_string", %"class.Json::Features", i8, [3 x i8] }>
%"class.std::stack" = type { %"class.std::deque" }
%"class.std::deque" = type { %"class.std::_Deque_base" }
%"class.std::_Deque_base" = type { %"struct.std::_Deque_base<Json::Value *, std::allocator<Json::Value *>>::_Deque_impl" }
%"struct.std::_Deque_base<Json::Value *, std::allocator<Json::Value *>>::_Deque_impl" = type { %"struct.std::_Deque_base<Json::Value *, std::allocator<Json::Value *>>::_Deque_impl_data" }
%"struct.std::_Deque_base<Json::Value *, std::allocator<Json::Value *>>::_Deque_impl_data" = type { ptr, i64, %"struct.std::_Deque_iterator", %"struct.std::_Deque_iterator" }
%"struct.std::_Deque_iterator" = type { ptr, ptr, ptr, ptr }
%"class.std::deque.0" = type { %"class.std::_Deque_base.1" }
%"class.std::_Deque_base.1" = type { %"struct.std::_Deque_base<Json::Reader::ErrorInfo, std::allocator<Json::Reader::ErrorInfo>>::_Deque_impl" }
%"struct.std::_Deque_base<Json::Reader::ErrorInfo, std::allocator<Json::Reader::ErrorInfo>>::_Deque_impl" = type { %"struct.std::_Deque_base<Json::Reader::ErrorInfo, std::allocator<Json::Reader::ErrorInfo>>::_Deque_impl_data" }
%"struct.std::_Deque_base<Json::Reader::ErrorInfo, std::allocator<Json::Reader::ErrorInfo>>::_Deque_impl_data" = type { ptr, i64, %"struct.std::_Deque_iterator.5", %"struct.std::_Deque_iterator.5" }
%"struct.std::_Deque_iterator.5" = type { ptr, ptr, ptr, ptr }
%"class.std::__cxx11::basic_string" = type { %"struct.std::__cxx11::basic_string<char>::_Alloc_hider", i64, %union.anon }
%"struct.std::__cxx11::basic_string<char>::_Alloc_hider" = type { ptr }
%union.anon = type { i64, [8 x i8] }

; Function Attrs: mustprogress nounwind uwtable
define linkonce_odr dso_local noundef i64 @_ZSt16__deque_buf_sizem(i64 noundef %0) #4 comdat {
  %2 = alloca i64, align 8
  store i64 %0, ptr %2, align 8
  %3 = load i64, ptr %2, align 8
  %4 = icmp ult i64 %3, 512
  br i1 %4, label %5, label %8

5:                                                ; preds = %1
  %6 = load i64, ptr %2, align 8
  %7 = udiv i64 512, %6
  br label %9

8:                                                ; preds = %1
  br label %9

9:                                                ; preds = %8, %5
  %10 = phi i64 [ %7, %5 ], [ 1, %8 ]
  ret i64 %10
}

; Function Attrs: mustprogress nounwind uwtable
define linkonce_odr dso_local noundef i64 @_ZNSt15_Deque_iteratorIPN4Json5ValueERS2_PS2_E14_S_buffer_sizeEv() #4 comdat align 2 {
  %1 = call noundef i64 @_ZSt16__deque_buf_sizem(i64 noundef 8)
  ret i64 %1
}

; Function Attrs: mustprogress nounwind uwtable
define linkonce_odr dso_local void @_ZNSt15_Deque_iteratorIPN4Json5ValueERS2_PS2_E11_M_set_nodeEPS4_(ptr noundef nonnull align 8 dereferenceable(32) %0, ptr noundef %1) #4 comdat align 2 {
  %3 = alloca ptr, align 8
  %4 = alloca ptr, align 8
  store ptr %0, ptr %3, align 8
  store ptr %1, ptr %4, align 8
  %5 = load ptr, ptr %3, align 8
  %6 = load ptr, ptr %4, align 8
  %7 = getelementptr inbounds %"struct.std::_Deque_iterator", ptr %5, i32 0, i32 3
  store ptr %6, ptr %7, align 8
  %8 = load ptr, ptr %4, align 8
  %9 = load ptr, ptr %8, align 8
  %10 = getelementptr inbounds %"struct.std::_Deque_iterator", ptr %5, i32 0, i32 1
  store ptr %9, ptr %10, align 8
  %11 = getelementptr inbounds %"struct.std::_Deque_iterator", ptr %5, i32 0, i32 1
  %12 = load ptr, ptr %11, align 8
  %13 = call noundef i64 @_ZNSt15_Deque_iteratorIPN4Json5ValueERS2_PS2_E14_S_buffer_sizeEv() #3
  %14 = getelementptr inbounds ptr, ptr %12, i64 %13
  %15 = getelementptr inbounds %"struct.std::_Deque_iterator", ptr %5, i32 0, i32 2
  store ptr %14, ptr %15, align 8
  ret void
}

; Function Attrs: mustprogress nounwind uwtable
define linkonce_odr dso_local void @_ZNSt15_Deque_iteratorIPN4Json5ValueERS2_PS2_EC2ERKS5_(ptr noundef nonnull align 8 dereferenceable(32) %0, ptr noundef nonnull align 8 dereferenceable(32) %1) unnamed_addr #4 comdat align 2 {
  %3 = alloca ptr, align 8
  %4 = alloca ptr, align 8
  store ptr %0, ptr %3, align 8
  store ptr %1, ptr %4, align 8
  %5 = load ptr, ptr %3, align 8
  %6 = getelementptr inbounds %"struct.std::_Deque_iterator", ptr %5, i32 0, i32 0
  %7 = load ptr, ptr %4, align 8
  %8 = getelementptr inbounds %"struct.std::_Deque_iterator", ptr %7, i32 0, i32 0
  %9 = load ptr, ptr %8, align 8
  store ptr %9, ptr %6, align 8
  %10 = getelementptr inbounds %"struct.std::_Deque_iterator", ptr %5, i32 0, i32 1
  %11 = load ptr, ptr %4, align 8
  %12 = getelementptr inbounds %"struct.std::_Deque_iterator", ptr %11, i32 0, i32 1
  %13 = load ptr, ptr %12, align 8
  store ptr %13, ptr %10, align 8
  %14 = getelementptr inbounds %"struct.std::_Deque_iterator", ptr %5, i32 0, i32 2
  %15 = load ptr, ptr %4, align 8
  %16 = getelementptr inbounds %"struct.std::_Deque_iterator", ptr %15, i32 0, i32 2
  %17 = load ptr, ptr %16, align 8
  store ptr %17, ptr %14, align 8
  %18 = getelementptr inbounds %"struct.std::_Deque_iterator", ptr %5, i32 0, i32 3
  %19 = load ptr, ptr %4, align 8
  %20 = getelementptr inbounds %"struct.std::_Deque_iterator", ptr %19, i32 0, i32 3
  %21 = load ptr, ptr %20, align 8
  store ptr %21, ptr %18, align 8
  ret void
}

; Function Attrs: mustprogress nounwind uwtable
define linkonce_odr dso_local noundef nonnull align 8 dereferenceable(8) ptr @_ZNKSt15_Deque_iteratorIPN4Json5ValueERS2_PS2_EdeEv(ptr noundef nonnull align 8 dereferenceable(32) %0) #4 comdat align 2 {
  %2 = alloca ptr, align 8
  store ptr %0, ptr %2, align 8
  %3 = load ptr, ptr %2, align 8
  %4 = getelementptr inbounds %"struct.std::_Deque_iterator", ptr %3, i32 0, i32 0
  %5 = load ptr, ptr %4, align 8
  ret ptr %5
}

; Function Attrs: mustprogress nounwind uwtable
define linkonce_odr dso_local noundef nonnull align 8 dereferenceable(32) ptr @_ZNSt15_Deque_iteratorIPN4Json5ValueERS2_PS2_EmmEv(ptr noundef nonnull align 8 dereferenceable(32) %0) #4 comdat align 2 {
  %2 = alloca ptr, align 8
  store ptr %0, ptr %2, align 8
  %3 = load ptr, ptr %2, align 8
  %4 = getelementptr inbounds %"struct.std::_Deque_iterator", ptr %3, i32 0, i32 0
  %5 = load ptr, ptr %4, align 8
  %6 = getelementptr inbounds %"struct.std::_Deque_iterator", ptr %3, i32 0, i32 1
  %7 = load ptr, ptr %6, align 8
  %8 = icmp eq ptr %5, %7
  br i1 %8, label %9, label %16

9:                                                ; preds = %1
  %10 = getelementptr inbounds %"struct.std::_Deque_iterator", ptr %3, i32 0, i32 3
  %11 = load ptr, ptr %10, align 8
  %12 = getelementptr inbounds ptr, ptr %11, i64 -1
  call void @_ZNSt15_Deque_iteratorIPN4Json5ValueERS2_PS2_E11_M_set_nodeEPS4_(ptr noundef nonnull align 8 dereferenceable(32) %3, ptr noundef %12) #3
  %13 = getelementptr inbounds %"struct.std::_Deque_iterator", ptr %3, i32 0, i32 2
  %14 = load ptr, ptr %13, align 8
  %15 = getelementptr inbounds %"struct.std::_Deque_iterator", ptr %3, i32 0, i32 0
  store ptr %14, ptr %15, align 8
  br label %16

16:                                               ; preds = %9, %1
  %17 = getelementptr inbounds %"struct.std::_Deque_iterator", ptr %3, i32 0, i32 0
  %18 = load ptr, ptr %17, align 8
  %19 = getelementptr inbounds ptr, ptr %18, i32 -1
  store ptr %19, ptr %17, align 8
  ret ptr %3
}

; Function Attrs: mustprogress nounwind uwtable
define linkonce_odr dso_local void @_ZNSt5dequeIPN4Json5ValueESaIS2_EE3endEv(ptr dead_on_unwind noalias writable sret(%"struct.std::_Deque_iterator") align 8 %0, ptr noundef nonnull align 8 dereferenceable(80) %1) #4 comdat align 2 {
  %3 = alloca ptr, align 8
  %4 = alloca ptr, align 8
  store ptr %0, ptr %3, align 8
  store ptr %1, ptr %4, align 8
  %5 = load ptr, ptr %4, align 8
  %6 = getelementptr inbounds %"class.std::_Deque_base", ptr %5, i32 0, i32 0
  %7 = getelementptr inbounds %"struct.std::_Deque_base<Json::Value *, std::allocator<Json::Value *>>::_Deque_impl_data", ptr %6, i32 0, i32 3
  call void @_ZNSt15_Deque_iteratorIPN4Json5ValueERS2_PS2_EC2ERKS5_(ptr noundef nonnull align 8 dereferenceable(32) %0, ptr noundef nonnull align 8 dereferenceable(32) %7) #3
  ret void
}

; Function Attrs: mustprogress nounwind uwtable
define linkonce_odr dso_local noundef nonnull align 8 dereferenceable(8) ptr @_ZNSt5dequeIPN4Json5ValueESaIS2_EE4backEv(ptr noundef nonnull align 8 dereferenceable(80) %0) #4 comdat align 2 {
  %2 = alloca ptr, align 8
  %3 = alloca %"struct.std::_Deque_iterator", align 8
  store ptr %0, ptr %2, align 8
  %4 = load ptr, ptr %2, align 8
  call void @_ZNSt5dequeIPN4Json5ValueESaIS2_EE3endEv(ptr dead_on_unwind writable sret(%"struct.std::_Deque_iterator") align 8 %3, ptr noundef nonnull align 8 dereferenceable(80) %4) #3
  %5 = call noundef nonnull align 8 dereferenceable(32) ptr @_ZNSt15_Deque_iteratorIPN4Json5ValueERS2_PS2_EmmEv(ptr noundef nonnull align 8 dereferenceable(32) %3) #3
  %6 = call noundef nonnull align 8 dereferenceable(8) ptr @_ZNKSt15_Deque_iteratorIPN4Json5ValueERS2_PS2_EdeEv(ptr noundef nonnull align 8 dereferenceable(32) %3) #3
  ret ptr %6
}

; Function Attrs: mustprogress nounwind uwtable
define linkonce_odr dso_local noundef nonnull align 8 dereferenceable(8) ptr @_ZNSt5stackIPN4Json5ValueESt5dequeIS2_SaIS2_EEE3topEv(ptr noundef nonnull align 8 dereferenceable(80) %0) #4 comdat align 2 {
  %2 = alloca ptr, align 8
  store ptr %0, ptr %2, align 8
  %3 = load ptr, ptr %2, align 8
  %4 = getelementptr inbounds %"class.std::stack", ptr %3, i32 0, i32 0
  %5 = call noundef nonnull align 8 dereferenceable(8) ptr @_ZNSt5dequeIPN4Json5ValueESaIS2_EE4backEv(ptr noundef nonnull align 8 dereferenceable(80) %4) #3
  ret ptr %5
}

; Function Attrs: mustprogress uwtable
define dso_local noundef nonnull align 8 dereferenceable(40) ptr @_ZN4Json6Reader12currentValueEv(ptr noundef nonnull align 8 dereferenceable(269) %0) #5 align 2 {
  %2 = alloca ptr, align 8
  store ptr %0, ptr %2, align 8
  %3 = load ptr, ptr %2, align 8
  %4 = getelementptr inbounds %"class.Json::Reader", ptr %3, i32 0, i32 0
  %5 = call noundef nonnull align 8 dereferenceable(8) ptr @_ZNSt5stackIPN4Json5ValueESt5dequeIS2_SaIS2_EEE3topEv(ptr noundef nonnull align 8 dereferenceable(80) %4)
  %6 = load ptr, ptr %5, align 8
  ret ptr %6
}